ARM GAS  C:\Users\82057\AppData\Local\Temp\ccMjLktW.s 			page 1


   1              		.cpu cortex-m4
   2              		.eabi_attribute 27, 1
   3              		.eabi_attribute 28, 1
   4              		.eabi_attribute 20, 1
   5              		.eabi_attribute 21, 1
   6              		.eabi_attribute 23, 3
   7              		.eabi_attribute 24, 1
   8              		.eabi_attribute 25, 1
   9              		.eabi_attribute 26, 1
  10              		.eabi_attribute 30, 1
  11              		.eabi_attribute 34, 1
  12              		.eabi_attribute 18, 4
  13              		.file	"main.c"
  14              		.text
  15              	.Ltext0:
  16              		.cfi_sections	.debug_frame
  17              		.section	.text.MX_GPIO_Init,"ax",%progbits
  18              		.align	1
  19              		.syntax unified
  20              		.thumb
  21              		.thumb_func
  22              		.fpu fpv4-sp-d16
  24              	MX_GPIO_Init:
  25              	.LFB141:
  26              		.file 1 "Core/Src/main.c"
   1:Core/Src/main.c **** /* USER CODE BEGIN Header */
   2:Core/Src/main.c **** /**
   3:Core/Src/main.c ****   ******************************************************************************
   4:Core/Src/main.c ****   * @file           : main.c
   5:Core/Src/main.c ****   * @brief          : Main program body
   6:Core/Src/main.c ****   ******************************************************************************
   7:Core/Src/main.c ****   * @attention
   8:Core/Src/main.c ****   *
   9:Core/Src/main.c ****   * Copyright (c) 2024 STMicroelectronics.
  10:Core/Src/main.c ****   * All rights reserved.
  11:Core/Src/main.c ****   *
  12:Core/Src/main.c ****   * This software is licensed under terms that can be found in the LICENSE file
  13:Core/Src/main.c ****   * in the root directory of this software component.
  14:Core/Src/main.c ****   * If no LICENSE file comes with this software, it is provided AS-IS.
  15:Core/Src/main.c ****   *
  16:Core/Src/main.c ****   ******************************************************************************
  17:Core/Src/main.c ****   */
  18:Core/Src/main.c **** /* USER CODE END Header */
  19:Core/Src/main.c **** /* Includes ------------------------------------------------------------------*/
  20:Core/Src/main.c **** #include "main.h"
  21:Core/Src/main.c **** #include "cmsis_os.h"
  22:Core/Src/main.c **** #include "usart.h"
  23:Core/Src/main.c **** /* Private includes ----------------------------------------------------------*/
  24:Core/Src/main.c **** /* USER CODE BEGIN Includes */
  25:Core/Src/main.c **** 
  26:Core/Src/main.c **** /* USER CODE END Includes */
  27:Core/Src/main.c **** 
  28:Core/Src/main.c **** /* Private typedef -----------------------------------------------------------*/
  29:Core/Src/main.c **** /* USER CODE BEGIN PTD */
  30:Core/Src/main.c **** 
  31:Core/Src/main.c **** /* USER CODE END PTD */
  32:Core/Src/main.c **** 
ARM GAS  C:\Users\82057\AppData\Local\Temp\ccMjLktW.s 			page 2


  33:Core/Src/main.c **** /* Private define ------------------------------------------------------------*/
  34:Core/Src/main.c **** /* USER CODE BEGIN PD */
  35:Core/Src/main.c **** 
  36:Core/Src/main.c **** /* USER CODE END PD */
  37:Core/Src/main.c **** 
  38:Core/Src/main.c **** /* Private macro -------------------------------------------------------------*/
  39:Core/Src/main.c **** /* USER CODE BEGIN PM */
  40:Core/Src/main.c **** 
  41:Core/Src/main.c **** /* USER CODE END PM */
  42:Core/Src/main.c **** 
  43:Core/Src/main.c **** TIM_HandleTypeDef htim16;
  44:Core/Src/main.c **** 
  45:Core/Src/main.c **** SystemStats_t system_stats_;
  46:Core/Src/main.c **** 
  47:Core/Src/main.c **** osThreadId defaultTaskHandle;
  48:Core/Src/main.c **** osThreadId myTask02Handle;
  49:Core/Src/main.c **** osThreadId myTask03Handle;
  50:Core/Src/main.c **** osMessageQId myQueue01Handle;
  51:Core/Src/main.c **** osTimerId myTimer01Handle;
  52:Core/Src/main.c **** osMutexId myMutex01Handle;
  53:Core/Src/main.c **** osSemaphoreId myBinarySem01Handle;
  54:Core/Src/main.c **** /* USER CODE BEGIN PV */
  55:Core/Src/main.c **** 
  56:Core/Src/main.c **** /* USER CODE END PV */
  57:Core/Src/main.c **** 
  58:Core/Src/main.c **** /* Private function prototypes -----------------------------------------------*/
  59:Core/Src/main.c **** void SystemClock_Config(void);
  60:Core/Src/main.c **** static void MX_GPIO_Init(void);
  61:Core/Src/main.c **** void MX_TIM16_Init(void);
  62:Core/Src/main.c **** void StartDefaultTask(void const * argument);
  63:Core/Src/main.c **** void StartTask02(void const * argument);
  64:Core/Src/main.c **** void StartTask03(void const * argument);
  65:Core/Src/main.c **** void Callback01(void const * argument);
  66:Core/Src/main.c **** 
  67:Core/Src/main.c **** /* USER CODE BEGIN PFP */
  68:Core/Src/main.c **** 
  69:Core/Src/main.c **** /* USER CODE END PFP */
  70:Core/Src/main.c **** 
  71:Core/Src/main.c **** /* Private user code ---------------------------------------------------------*/
  72:Core/Src/main.c **** /* USER CODE BEGIN 0 */
  73:Core/Src/main.c **** 
  74:Core/Src/main.c **** /* USER CODE END 0 */
  75:Core/Src/main.c **** 
  76:Core/Src/main.c **** /**
  77:Core/Src/main.c ****   * @brief  The application entry point.
  78:Core/Src/main.c ****   * @retval int
  79:Core/Src/main.c ****   */
  80:Core/Src/main.c **** int main(void)
  81:Core/Src/main.c **** {
  82:Core/Src/main.c **** 
  83:Core/Src/main.c ****   /* USER CODE BEGIN 1 */
  84:Core/Src/main.c **** 
  85:Core/Src/main.c ****   /* USER CODE END 1 */
  86:Core/Src/main.c **** 
  87:Core/Src/main.c ****   /* MCU Configuration--------------------------------------------------------*/
  88:Core/Src/main.c **** 
  89:Core/Src/main.c ****   /* Reset of all peripherals, Initializes the Flash interface and the Systick. */
ARM GAS  C:\Users\82057\AppData\Local\Temp\ccMjLktW.s 			page 3


  90:Core/Src/main.c ****   HAL_Init();
  91:Core/Src/main.c **** 
  92:Core/Src/main.c ****   /* USER CODE BEGIN Init */
  93:Core/Src/main.c **** 
  94:Core/Src/main.c ****   /* USER CODE END Init */
  95:Core/Src/main.c **** 
  96:Core/Src/main.c ****   /* Configure the system clock */
  97:Core/Src/main.c ****   SystemClock_Config();
  98:Core/Src/main.c **** 
  99:Core/Src/main.c ****   /* USER CODE BEGIN SysInit */
 100:Core/Src/main.c **** 
 101:Core/Src/main.c ****   /* USER CODE END SysInit */
 102:Core/Src/main.c **** 
 103:Core/Src/main.c ****   /* Initialize all configured peripherals */
 104:Core/Src/main.c ****   MX_GPIO_Init();
 105:Core/Src/main.c ****   MX_USART1_UART_Init();
 106:Core/Src/main.c ****   /* USER CODE BEGIN 2 */
 107:Core/Src/main.c ****   MX_TIM16_Init();
 108:Core/Src/main.c ****   /* USER CODE END 2 */
 109:Core/Src/main.c **** 
 110:Core/Src/main.c ****   /* Create the mutex(es) */
 111:Core/Src/main.c ****   /* definition and creation of myMutex01 */
 112:Core/Src/main.c ****   osMutexDef(myMutex01);
 113:Core/Src/main.c ****   myMutex01Handle = osMutexCreate(osMutex(myMutex01));
 114:Core/Src/main.c **** 
 115:Core/Src/main.c ****   /* USER CODE BEGIN RTOS_MUTEX */
 116:Core/Src/main.c ****   /* add mutexes, ... */
 117:Core/Src/main.c ****   /* USER CODE END RTOS_MUTEX */
 118:Core/Src/main.c **** 
 119:Core/Src/main.c ****   /* Create the semaphores(s) */
 120:Core/Src/main.c ****   /* definition and creation of myBinarySem01 */
 121:Core/Src/main.c ****   osSemaphoreDef(myBinarySem01);
 122:Core/Src/main.c ****   myBinarySem01Handle = osSemaphoreCreate(osSemaphore(myBinarySem01), 1);
 123:Core/Src/main.c **** 
 124:Core/Src/main.c ****   /* USER CODE BEGIN RTOS_SEMAPHORES */
 125:Core/Src/main.c ****   /* add semaphores, ... */
 126:Core/Src/main.c ****   /* USER CODE END RTOS_SEMAPHORES */
 127:Core/Src/main.c **** 
 128:Core/Src/main.c ****   /* Create the timer(s) */
 129:Core/Src/main.c ****   /* definition and creation of myTimer01 */
 130:Core/Src/main.c ****   osTimerDef(myTimer01, Callback01);
 131:Core/Src/main.c ****   myTimer01Handle = osTimerCreate(osTimer(myTimer01), osTimerPeriodic, NULL);
 132:Core/Src/main.c ****   if( myTimer01Handle != NULL )
 133:Core/Src/main.c ****   {
 134:Core/Src/main.c ****       // ÂêØÂä®ÂÆöÊó∂Âô®
 135:Core/Src/main.c ****     //mak  osTimerStart( myTimer01Handle, 100 );
 136:Core/Src/main.c ****   }
 137:Core/Src/main.c ****   /* USER CODE BEGIN RTOS_TIMERS */
 138:Core/Src/main.c ****   /* start timers, add new ones, ... */
 139:Core/Src/main.c ****   /* USER CODE END RTOS_TIMERS */
 140:Core/Src/main.c **** 
 141:Core/Src/main.c ****   /* Create the queue(s) */
 142:Core/Src/main.c ****   /* definition and creation of myQueue01 */
 143:Core/Src/main.c ****   osMessageQDef(myQueue01, 16, uint16_t);
 144:Core/Src/main.c ****   myQueue01Handle = osMessageCreate(osMessageQ(myQueue01), NULL);
 145:Core/Src/main.c **** 
 146:Core/Src/main.c ****   /* USER CODE BEGIN RTOS_QUEUES */
ARM GAS  C:\Users\82057\AppData\Local\Temp\ccMjLktW.s 			page 4


 147:Core/Src/main.c ****   /* add queues, ... */
 148:Core/Src/main.c ****   /* USER CODE END RTOS_QUEUES */
 149:Core/Src/main.c **** 
 150:Core/Src/main.c ****   /* Create the thread(s) */
 151:Core/Src/main.c ****   /* definition and creation of defaultTask */
 152:Core/Src/main.c ****   osThreadDef(defaultTask, StartDefaultTask, osPriorityNormal, 0, 512);
 153:Core/Src/main.c ****   defaultTaskHandle = osThreadCreate(osThread(defaultTask), NULL);
 154:Core/Src/main.c **** 
 155:Core/Src/main.c ****   /* definition and creation of myTask02 */
 156:Core/Src/main.c ****   osThreadDef(myTask02, StartTask02, osPriorityIdle, 0, 256);
 157:Core/Src/main.c ****   myTask02Handle = osThreadCreate(osThread(myTask02), NULL);
 158:Core/Src/main.c **** 
 159:Core/Src/main.c ****   /* definition and creation of myTask03 */
 160:Core/Src/main.c ****   osThreadDef(myTask03, StartTask03, osPriorityIdle, 0, 128);
 161:Core/Src/main.c ****   myTask03Handle = osThreadCreate(osThread(myTask03), NULL);
 162:Core/Src/main.c **** 
 163:Core/Src/main.c ****   /* USER CODE BEGIN RTOS_THREADS */
 164:Core/Src/main.c ****   /* add threads, ... */
 165:Core/Src/main.c ****   /* USER CODE END RTOS_THREADS */
 166:Core/Src/main.c **** 
 167:Core/Src/main.c ****   /* Start scheduler */
 168:Core/Src/main.c ****   osKernelStart();
 169:Core/Src/main.c **** 
 170:Core/Src/main.c ****   /* We should never get here as control is now taken by the scheduler */
 171:Core/Src/main.c **** 
 172:Core/Src/main.c ****   /* Infinite loop */
 173:Core/Src/main.c ****   /* USER CODE BEGIN WHILE */
 174:Core/Src/main.c ****   while (1)
 175:Core/Src/main.c ****   {
 176:Core/Src/main.c ****     /* USER CODE END WHILE */
 177:Core/Src/main.c **** 
 178:Core/Src/main.c ****     /* USER CODE BEGIN 3 */
 179:Core/Src/main.c ****   }
 180:Core/Src/main.c ****   /* USER CODE END 3 */
 181:Core/Src/main.c **** }
 182:Core/Src/main.c **** 
 183:Core/Src/main.c **** TaskStatus_t TaskStatusArray_[12];
 184:Core/Src/main.c **** 
 185:Core/Src/main.c **** void vApplicationIdleHook( void )
 186:Core/Src/main.c **** {
 187:Core/Src/main.c **** 
 188:Core/Src/main.c ****   system_stats_.min_heap_space = xPortGetMinimumEverFreeHeapSize();
 189:Core/Src/main.c ****   system_stats_.min_stack_space_thread0 =  uxTaskGetStackHighWaterMark(defaultTaskHandle) * sizeof(
 190:Core/Src/main.c ****   system_stats_.min_stack_space_thread1 =  uxTaskGetStackHighWaterMark(myTask02Handle) * sizeof(Sta
 191:Core/Src/main.c ****   system_stats_.min_stack_space_thread2 =  uxTaskGetStackHighWaterMark(myTask03Handle) * sizeof(Sta
 192:Core/Src/main.c **** 
 193:Core/Src/main.c **** 
 194:Core/Src/main.c **** 
 195:Core/Src/main.c **** }
 196:Core/Src/main.c **** 
 197:Core/Src/main.c **** /**
 198:Core/Src/main.c ****   * @brief System Clock Configuration
 199:Core/Src/main.c ****   * @retval None
 200:Core/Src/main.c ****   */
 201:Core/Src/main.c **** void SystemClock_Config(void)
 202:Core/Src/main.c **** {
 203:Core/Src/main.c ****   RCC_OscInitTypeDef RCC_OscInitStruct = {0};
ARM GAS  C:\Users\82057\AppData\Local\Temp\ccMjLktW.s 			page 5


 204:Core/Src/main.c ****   RCC_ClkInitTypeDef RCC_ClkInitStruct = {0};
 205:Core/Src/main.c **** 
 206:Core/Src/main.c ****   /** Configure the main internal regulator output voltage
 207:Core/Src/main.c ****   */
 208:Core/Src/main.c ****   if (HAL_PWREx_ControlVoltageScaling(PWR_REGULATOR_VOLTAGE_SCALE1) != HAL_OK)
 209:Core/Src/main.c ****   {
 210:Core/Src/main.c ****     Error_Handler();
 211:Core/Src/main.c ****   }
 212:Core/Src/main.c **** 
 213:Core/Src/main.c ****   /** Initializes the RCC Oscillators according to the specified parameters
 214:Core/Src/main.c ****   * in the RCC_OscInitTypeDef structure.
 215:Core/Src/main.c ****   */
 216:Core/Src/main.c ****   RCC_OscInitStruct.OscillatorType = RCC_OSCILLATORTYPE_HSE;
 217:Core/Src/main.c ****   RCC_OscInitStruct.HSEState = RCC_HSE_ON;
 218:Core/Src/main.c ****   RCC_OscInitStruct.PLL.PLLState = RCC_PLL_ON;
 219:Core/Src/main.c ****   RCC_OscInitStruct.PLL.PLLSource = RCC_PLLSOURCE_HSE;
 220:Core/Src/main.c ****   RCC_OscInitStruct.PLL.PLLM = 1;
 221:Core/Src/main.c ****   RCC_OscInitStruct.PLL.PLLN = 20;
 222:Core/Src/main.c ****   RCC_OscInitStruct.PLL.PLLP = RCC_PLLP_DIV7;
 223:Core/Src/main.c ****   RCC_OscInitStruct.PLL.PLLQ = RCC_PLLQ_DIV2;
 224:Core/Src/main.c ****   RCC_OscInitStruct.PLL.PLLR = RCC_PLLR_DIV2;
 225:Core/Src/main.c ****   if (HAL_RCC_OscConfig(&RCC_OscInitStruct) != HAL_OK)
 226:Core/Src/main.c ****   {
 227:Core/Src/main.c ****     Error_Handler();
 228:Core/Src/main.c ****   }
 229:Core/Src/main.c **** 
 230:Core/Src/main.c ****   /** Initializes the CPU, AHB and APB buses clocks
 231:Core/Src/main.c ****   */
 232:Core/Src/main.c ****   RCC_ClkInitStruct.ClockType = RCC_CLOCKTYPE_HCLK|RCC_CLOCKTYPE_SYSCLK
 233:Core/Src/main.c ****                               |RCC_CLOCKTYPE_PCLK1|RCC_CLOCKTYPE_PCLK2;
 234:Core/Src/main.c ****   RCC_ClkInitStruct.SYSCLKSource = RCC_SYSCLKSOURCE_PLLCLK;
 235:Core/Src/main.c ****   RCC_ClkInitStruct.AHBCLKDivider = RCC_SYSCLK_DIV1;
 236:Core/Src/main.c ****   RCC_ClkInitStruct.APB1CLKDivider = RCC_HCLK_DIV1;
 237:Core/Src/main.c ****   RCC_ClkInitStruct.APB2CLKDivider = RCC_HCLK_DIV1;
 238:Core/Src/main.c **** 
 239:Core/Src/main.c ****   if (HAL_RCC_ClockConfig(&RCC_ClkInitStruct, FLASH_LATENCY_4) != HAL_OK)
 240:Core/Src/main.c ****   {
 241:Core/Src/main.c ****     Error_Handler();
 242:Core/Src/main.c ****   }
 243:Core/Src/main.c **** }
 244:Core/Src/main.c **** 
 245:Core/Src/main.c **** /**
 246:Core/Src/main.c ****   * @brief TIM16 Initialization Function
 247:Core/Src/main.c ****   * @param None
 248:Core/Src/main.c ****   * @retval None
 249:Core/Src/main.c ****   */
 250:Core/Src/main.c **** void MX_TIM16_Init(void)
 251:Core/Src/main.c **** {
 252:Core/Src/main.c **** 
 253:Core/Src/main.c ****   /* USER CODE BEGIN TIM16_Init 0 */
 254:Core/Src/main.c **** 
 255:Core/Src/main.c ****   /* USER CODE END TIM16_Init 0 */
 256:Core/Src/main.c **** 
 257:Core/Src/main.c ****   /* USER CODE BEGIN TIM16_Init 1 */
 258:Core/Src/main.c **** 
 259:Core/Src/main.c ****   /* USER CODE END TIM16_Init 1 */
 260:Core/Src/main.c ****   htim16.Instance = TIM16;
ARM GAS  C:\Users\82057\AppData\Local\Temp\ccMjLktW.s 			page 6


 261:Core/Src/main.c ****   htim16.Init.Prescaler = 79;
 262:Core/Src/main.c ****   htim16.Init.CounterMode = TIM_COUNTERMODE_UP;
 263:Core/Src/main.c ****   htim16.Init.Period = 100;
 264:Core/Src/main.c ****   htim16.Init.ClockDivision = TIM_CLOCKDIVISION_DIV1;
 265:Core/Src/main.c ****   htim16.Init.RepetitionCounter = 0;
 266:Core/Src/main.c ****   htim16.Init.AutoReloadPreload = TIM_AUTORELOAD_PRELOAD_DISABLE;
 267:Core/Src/main.c ****   if (HAL_TIM_Base_Init(&htim16) != HAL_OK)
 268:Core/Src/main.c ****   {
 269:Core/Src/main.c ****     Error_Handler();
 270:Core/Src/main.c ****   }
 271:Core/Src/main.c ****   HAL_TIM_Base_Start_IT(&htim16);
 272:Core/Src/main.c ****   /* USER CODE BEGIN TIM16_Init 2 */
 273:Core/Src/main.c **** 
 274:Core/Src/main.c ****   /* USER CODE END TIM16_Init 2 */
 275:Core/Src/main.c **** 
 276:Core/Src/main.c **** }
 277:Core/Src/main.c **** 
 278:Core/Src/main.c **** 
 279:Core/Src/main.c **** /**
 280:Core/Src/main.c ****   * @brief GPIO Initialization Function
 281:Core/Src/main.c ****   * @param None
 282:Core/Src/main.c ****   * @retval None
 283:Core/Src/main.c ****   */
 284:Core/Src/main.c **** static void MX_GPIO_Init(void)
 285:Core/Src/main.c **** {
  27              		.loc 1 285 0
  28              		.cfi_startproc
  29              		@ args = 0, pretend = 0, frame = 8
  30              		@ frame_needed = 0, uses_anonymous_args = 0
  31              		@ link register save eliminated.
  32 0000 82B0     		sub	sp, sp, #8
  33              	.LCFI0:
  34              		.cfi_def_cfa_offset 8
  35              	.LBB4:
 286:Core/Src/main.c **** /* USER CODE BEGIN MX_GPIO_Init_1 */
 287:Core/Src/main.c **** /* USER CODE END MX_GPIO_Init_1 */
 288:Core/Src/main.c **** 
 289:Core/Src/main.c ****   /* GPIO Ports Clock Enable */
 290:Core/Src/main.c ****   __HAL_RCC_GPIOH_CLK_ENABLE();
  36              		.loc 1 290 0
  37 0002 0A4B     		ldr	r3, .L3
  38 0004 DA6C     		ldr	r2, [r3, #76]
  39 0006 42F08002 		orr	r2, r2, #128
  40 000a DA64     		str	r2, [r3, #76]
  41 000c DA6C     		ldr	r2, [r3, #76]
  42 000e 02F08002 		and	r2, r2, #128
  43 0012 0092     		str	r2, [sp]
  44 0014 009A     		ldr	r2, [sp]
  45              	.LBE4:
  46              	.LBB5:
 291:Core/Src/main.c ****   __HAL_RCC_GPIOA_CLK_ENABLE();
  47              		.loc 1 291 0
  48 0016 DA6C     		ldr	r2, [r3, #76]
  49 0018 42F00102 		orr	r2, r2, #1
  50 001c DA64     		str	r2, [r3, #76]
  51 001e DB6C     		ldr	r3, [r3, #76]
  52 0020 03F00103 		and	r3, r3, #1
ARM GAS  C:\Users\82057\AppData\Local\Temp\ccMjLktW.s 			page 7


  53 0024 0193     		str	r3, [sp, #4]
  54 0026 019B     		ldr	r3, [sp, #4]
  55              	.LBE5:
 292:Core/Src/main.c **** 
 293:Core/Src/main.c **** /* USER CODE BEGIN MX_GPIO_Init_2 */
 294:Core/Src/main.c **** /* USER CODE END MX_GPIO_Init_2 */
 295:Core/Src/main.c **** }
  56              		.loc 1 295 0
  57 0028 02B0     		add	sp, sp, #8
  58              	.LCFI1:
  59              		.cfi_def_cfa_offset 0
  60              		@ sp needed
  61 002a 7047     		bx	lr
  62              	.L4:
  63              		.align	2
  64              	.L3:
  65 002c 00100240 		.word	1073876992
  66              		.cfi_endproc
  67              	.LFE141:
  69              		.section	.text.Callback01,"ax",%progbits
  70              		.align	1
  71              		.global	Callback01
  72              		.syntax unified
  73              		.thumb
  74              		.thumb_func
  75              		.fpu fpv4-sp-d16
  77              	Callback01:
  78              	.LFB145:
 296:Core/Src/main.c **** 
 297:Core/Src/main.c **** /* USER CODE BEGIN 4 */
 298:Core/Src/main.c **** 
 299:Core/Src/main.c **** /* USER CODE END 4 */
 300:Core/Src/main.c **** 
 301:Core/Src/main.c **** /* USER CODE BEGIN Header_StartDefaultTask */
 302:Core/Src/main.c **** /**
 303:Core/Src/main.c ****   * @brief  Function implementing the defaultTask thread.
 304:Core/Src/main.c ****   * @param  argument: Not used
 305:Core/Src/main.c ****   * @retval None
 306:Core/Src/main.c ****   */
 307:Core/Src/main.c **** 
 308:Core/Src/main.c ****  static int is_debug_thread_space = 0;
 309:Core/Src/main.c ****   static int  is_debug_thread_infor = 1;
 310:Core/Src/main.c **** /* USER CODE END Header_StartDefaultTask */
 311:Core/Src/main.c **** void StartDefaultTask(void const * argument)
 312:Core/Src/main.c **** {
 313:Core/Src/main.c ****       char buffer[256]; // ÂàõÂª∫‰∏Ä‰∏™Ë∂≥Â§üÂ§ßÁöÑÂ≠óÁ¨¶Êï∞ÁªÑÊù•Â≠òÂÇ®ÁªìÊûú
 314:Core/Src/main.c ****   /* USER CODE BEGIN 5 */
 315:Core/Src/main.c ****   /* Infinite loop */
 316:Core/Src/main.c ****     osSignalSet(myTask02Handle, 0x01);
 317:Core/Src/main.c ****     sprintf(buffer, "set task02 message");
 318:Core/Src/main.c ****     HAL_UART_Transmit(&huart1,(uint8_t*)buffer, strlen(buffer), 1000); // ÂèëÈÄÅÂ≠óÁ¨¶‰∏≤Âπ∂ËÆæÁΩÆË
 319:Core/Src/main.c ****     
 320:Core/Src/main.c ****   for(;;)
 321:Core/Src/main.c ****   {
 322:Core/Src/main.c ****  
 323:Core/Src/main.c **** 
 324:Core/Src/main.c ****     UBaseType_t uxArraySize, x;
ARM GAS  C:\Users\82057\AppData\Local\Temp\ccMjLktW.s 			page 8


 325:Core/Src/main.c ****    
 326:Core/Src/main.c ****     // ‰ΩøÁî® sprintf Â∞ÜÊ†ºÂºèÂåñÁöÑÂ≠óÁ¨¶‰∏≤ÂÜôÂÖ• buffer
 327:Core/Src/main.c ****     if(is_debug_thread_space)
 328:Core/Src/main.c ****     {
 329:Core/Src/main.c ****    //   sprintf(buffer, "thread0  is %d. thread1  is %d thread2  is %d", system_stats_.min_stack_sp
 330:Core/Src/main.c ****     //  HAL_UART_Transmit(&huart1,(uint8_t*)buffer, strlen(buffer), 1000); // ÂèëÈÄÅÂ≠óÁ¨¶‰∏≤Âπ∂ËÆæ
 331:Core/Src/main.c ****     }
 332:Core/Src/main.c ****     if(is_debug_thread_infor)
 333:Core/Src/main.c ****     {
 334:Core/Src/main.c ****       uxArraySize = uxTaskGetNumberOfTasks();
 335:Core/Src/main.c ****       uxTaskGetSystemState(TaskStatusArray_, uxArraySize, NULL);
 336:Core/Src/main.c ****       for(x=0; x < uxArraySize;x++)
 337:Core/Src/main.c ****       {
 338:Core/Src/main.c **** 
 339:Core/Src/main.c ****         sprintf(buffer, "thread name is %s. time_used is %d\n", TaskStatusArray_[x].pcTaskName, Tas
 340:Core/Src/main.c ****     //    HAL_UART_Transmit(&huart1,(uint8_t*)buffer, strlen(buffer), 1000); // ÂèëÈÄÅÂ≠óÁ¨¶‰∏≤Âπ∂Ë
 341:Core/Src/main.c ****       }
 342:Core/Src/main.c **** 
 343:Core/Src/main.c **** 
 344:Core/Src/main.c ****     }
 345:Core/Src/main.c **** 
 346:Core/Src/main.c ****     
 347:Core/Src/main.c ****     osDelay(1000);
 348:Core/Src/main.c **** 
 349:Core/Src/main.c ****   }
 350:Core/Src/main.c ****   /* USER CODE END 5 */
 351:Core/Src/main.c **** }
 352:Core/Src/main.c **** 
 353:Core/Src/main.c **** 
 354:Core/Src/main.c **** /* USER CODE BEGIN Header_StartTask02 */
 355:Core/Src/main.c **** /**
 356:Core/Src/main.c **** * @brief Function implementing the myTask02 thread.
 357:Core/Src/main.c **** * @param argument: Not used
 358:Core/Src/main.c **** * @retval None
 359:Core/Src/main.c **** */
 360:Core/Src/main.c **** /* USER CODE END Header_StartTask02 */
 361:Core/Src/main.c **** void StartTask02(void const * argument)
 362:Core/Src/main.c **** {
 363:Core/Src/main.c ****   /* USER CODE BEGIN StartTask02 */
 364:Core/Src/main.c ****   /* Infinite loop */
 365:Core/Src/main.c ****   char buffer[64]; // ÂàõÂª∫‰∏Ä‰∏™Ë∂≥Â§üÂ§ßÁöÑÂ≠óÁ¨¶Êï∞ÁªÑÊù•Â≠òÂÇ®ÁªìÊûú
 366:Core/Src/main.c ****   for(;;)
 367:Core/Src/main.c ****   {
 368:Core/Src/main.c ****      osDelay(10000);
 369:Core/Src/main.c ****     osSignalWait(0x01, osWaitForever);
 370:Core/Src/main.c ****     sprintf(buffer, "receage 0x01");
 371:Core/Src/main.c ****     HAL_UART_Transmit(&huart1,(uint8_t*)buffer, strlen(buffer), 1000); // ÂèëÈÄÅÂ≠óÁ¨¶‰∏≤Âπ∂ËÆæÁΩÆË
 372:Core/Src/main.c ****       
 373:Core/Src/main.c **** 
 374:Core/Src/main.c ****   }
 375:Core/Src/main.c ****   /* USER CODE END StartTask02 */
 376:Core/Src/main.c **** }
 377:Core/Src/main.c **** 
 378:Core/Src/main.c **** /* USER CODE BEGIN Header_StartTask03 */
 379:Core/Src/main.c **** /**
 380:Core/Src/main.c **** * @brief Function implementing the myTask03 thread.
 381:Core/Src/main.c **** * @param argument: Not used
ARM GAS  C:\Users\82057\AppData\Local\Temp\ccMjLktW.s 			page 9


 382:Core/Src/main.c **** * @retval None
 383:Core/Src/main.c **** */
 384:Core/Src/main.c **** /* USER CODE END Header_StartTask03 */
 385:Core/Src/main.c **** void StartTask03(void const * argument)
 386:Core/Src/main.c **** {
 387:Core/Src/main.c ****   /* USER CODE BEGIN StartTask03 */
 388:Core/Src/main.c ****   /* Infinite loop */
 389:Core/Src/main.c ****   for(;;)
 390:Core/Src/main.c ****   {
 391:Core/Src/main.c ****     osDelay(1000);
 392:Core/Src/main.c ****   }
 393:Core/Src/main.c ****   /* USER CODE END StartTask03 */
 394:Core/Src/main.c **** }
 395:Core/Src/main.c **** 
 396:Core/Src/main.c **** /* Callback01 function */
 397:Core/Src/main.c **** void Callback01(void const * argument)
 398:Core/Src/main.c **** {
  79              		.loc 1 398 0
  80              		.cfi_startproc
  81              		@ args = 0, pretend = 0, frame = 0
  82              		@ frame_needed = 0, uses_anonymous_args = 0
  83              		@ link register save eliminated.
  84              	.LVL0:
 399:Core/Src/main.c ****   /* USER CODE BEGIN Callback01 */
 400:Core/Src/main.c **** 
 401:Core/Src/main.c ****   /* USER CODE END Callback01 */
 402:Core/Src/main.c **** }
  85              		.loc 1 402 0
  86 0000 7047     		bx	lr
  87              		.cfi_endproc
  88              	.LFE145:
  90              		.section	.text.StartDefaultTask,"ax",%progbits
  91              		.align	1
  92              		.global	StartDefaultTask
  93              		.syntax unified
  94              		.thumb
  95              		.thumb_func
  96              		.fpu fpv4-sp-d16
  98              	StartDefaultTask:
  99              	.LFB142:
 312:Core/Src/main.c ****       char buffer[256]; // ÂàõÂª∫‰∏Ä‰∏™Ë∂≥Â§üÂ§ßÁöÑÂ≠óÁ¨¶Êï∞ÁªÑÊù•Â≠òÂÇ®ÁªìÊûú
 100              		.loc 1 312 0
 101              		.cfi_startproc
 102              		@ args = 0, pretend = 0, frame = 256
 103              		@ frame_needed = 0, uses_anonymous_args = 0
 104              	.LVL1:
 105 0000 30B5     		push	{r4, r5, lr}
 106              	.LCFI2:
 107              		.cfi_def_cfa_offset 12
 108              		.cfi_offset 4, -12
 109              		.cfi_offset 5, -8
 110              		.cfi_offset 14, -4
 111 0002 C1B0     		sub	sp, sp, #260
 112              	.LCFI3:
 113              		.cfi_def_cfa_offset 272
 316:Core/Src/main.c ****     sprintf(buffer, "set task02 message");
 114              		.loc 1 316 0
ARM GAS  C:\Users\82057\AppData\Local\Temp\ccMjLktW.s 			page 10


 115 0004 0121     		movs	r1, #1
 116 0006 1A4B     		ldr	r3, .L11
 117 0008 1868     		ldr	r0, [r3]
 118              	.LVL2:
 119 000a FFF7FEFF 		bl	osSignalSet
 120              	.LVL3:
 317:Core/Src/main.c ****     HAL_UART_Transmit(&huart1,(uint8_t*)buffer, strlen(buffer), 1000); // ÂèëÈÄÅÂ≠óÁ¨¶‰∏≤Âπ∂ËÆæÁΩÆË
 121              		.loc 1 317 0
 122 000e 6C46     		mov	r4, sp
 123 0010 184D     		ldr	r5, .L11+4
 124 0012 0FCD     		ldmia	r5!, {r0, r1, r2, r3}
 125 0014 0FC4     		stmia	r4!, {r0, r1, r2, r3}
 126 0016 2B68     		ldr	r3, [r5]
 127 0018 24F8023B 		strh	r3, [r4], #2	@ movhi
 128 001c 1B0C     		lsrs	r3, r3, #16
 129 001e 2370     		strb	r3, [r4]
 318:Core/Src/main.c ****     
 130              		.loc 1 318 0
 131 0020 6846     		mov	r0, sp
 132 0022 FFF7FEFF 		bl	strlen
 133              	.LVL4:
 134 0026 4FF47A73 		mov	r3, #1000
 135 002a 82B2     		uxth	r2, r0
 136 002c 6946     		mov	r1, sp
 137 002e 1248     		ldr	r0, .L11+8
 138 0030 FFF7FEFF 		bl	HAL_UART_Transmit
 139              	.LVL5:
 140 0034 11E0     		b	.L9
 141              	.LVL6:
 142              	.L8:
 143              	.LBB6:
 339:Core/Src/main.c ****     //    HAL_UART_Transmit(&huart1,(uint8_t*)buffer, strlen(buffer), 1000); // ÂèëÈÄÅÂ≠óÁ¨¶‰∏≤Âπ∂Ë
 144              		.loc 1 339 0 discriminator 3
 145 0036 E300     		lsls	r3, r4, #3
 146 0038 2344     		add	r3, r3, r4
 147 003a 9900     		lsls	r1, r3, #2
 148 003c 0F4A     		ldr	r2, .L11+12
 149 003e 0A44     		add	r2, r2, r1
 150 0040 9369     		ldr	r3, [r2, #24]
 151 0042 5268     		ldr	r2, [r2, #4]
 152 0044 0E49     		ldr	r1, .L11+16
 153 0046 6846     		mov	r0, sp
 154 0048 FFF7FEFF 		bl	sprintf
 155              	.LVL7:
 336:Core/Src/main.c ****       {
 156              		.loc 1 336 0 discriminator 3
 157 004c 0134     		adds	r4, r4, #1
 158              	.LVL8:
 159              	.L7:
 336:Core/Src/main.c ****       {
 160              		.loc 1 336 0 is_stmt 0 discriminator 1
 161 004e AC42     		cmp	r4, r5
 162 0050 F1D3     		bcc	.L8
 347:Core/Src/main.c **** 
 163              		.loc 1 347 0 is_stmt 1
 164 0052 4FF47A70 		mov	r0, #1000
 165 0056 FFF7FEFF 		bl	osDelay
ARM GAS  C:\Users\82057\AppData\Local\Temp\ccMjLktW.s 			page 11


 166              	.LVL9:
 167              	.L9:
 334:Core/Src/main.c ****       uxTaskGetSystemState(TaskStatusArray_, uxArraySize, NULL);
 168              		.loc 1 334 0
 169 005a FFF7FEFF 		bl	uxTaskGetNumberOfTasks
 170              	.LVL10:
 171 005e 0546     		mov	r5, r0
 172              	.LVL11:
 335:Core/Src/main.c ****       for(x=0; x < uxArraySize;x++)
 173              		.loc 1 335 0
 174 0060 0022     		movs	r2, #0
 175 0062 0146     		mov	r1, r0
 176 0064 0548     		ldr	r0, .L11+12
 177              	.LVL12:
 178 0066 FFF7FEFF 		bl	uxTaskGetSystemState
 179              	.LVL13:
 336:Core/Src/main.c ****       {
 180              		.loc 1 336 0
 181 006a 0024     		movs	r4, #0
 182 006c EFE7     		b	.L7
 183              	.L12:
 184 006e 00BF     		.align	2
 185              	.L11:
 186 0070 00000000 		.word	myTask02Handle
 187 0074 00000000 		.word	.LC7
 188 0078 00000000 		.word	huart1
 189 007c 00000000 		.word	TaskStatusArray_
 190 0080 14000000 		.word	.LC8
 191              	.LBE6:
 192              		.cfi_endproc
 193              	.LFE142:
 195              		.section	.text.StartTask03,"ax",%progbits
 196              		.align	1
 197              		.global	StartTask03
 198              		.syntax unified
 199              		.thumb
 200              		.thumb_func
 201              		.fpu fpv4-sp-d16
 203              	StartTask03:
 204              	.LFB144:
 386:Core/Src/main.c ****   /* USER CODE BEGIN StartTask03 */
 205              		.loc 1 386 0
 206              		.cfi_startproc
 207              		@ Volatile: function does not return.
 208              		@ args = 0, pretend = 0, frame = 0
 209              		@ frame_needed = 0, uses_anonymous_args = 0
 210              	.LVL14:
 211 0000 08B5     		push	{r3, lr}
 212              	.LCFI4:
 213              		.cfi_def_cfa_offset 8
 214              		.cfi_offset 3, -8
 215              		.cfi_offset 14, -4
 216              	.LVL15:
 217              	.L14:
 391:Core/Src/main.c ****   }
 218              		.loc 1 391 0 discriminator 1
 219 0002 4FF47A70 		mov	r0, #1000
ARM GAS  C:\Users\82057\AppData\Local\Temp\ccMjLktW.s 			page 12


 220 0006 FFF7FEFF 		bl	osDelay
 221              	.LVL16:
 222 000a FAE7     		b	.L14
 223              		.cfi_endproc
 224              	.LFE144:
 226              		.section	.text.StartTask02,"ax",%progbits
 227              		.align	1
 228              		.global	StartTask02
 229              		.syntax unified
 230              		.thumb
 231              		.thumb_func
 232              		.fpu fpv4-sp-d16
 234              	StartTask02:
 235              	.LFB143:
 362:Core/Src/main.c ****   /* USER CODE BEGIN StartTask02 */
 236              		.loc 1 362 0
 237              		.cfi_startproc
 238              		@ Volatile: function does not return.
 239              		@ args = 0, pretend = 0, frame = 80
 240              		@ frame_needed = 0, uses_anonymous_args = 0
 241              	.LVL17:
 242 0000 00B5     		push	{lr}
 243              	.LCFI5:
 244              		.cfi_def_cfa_offset 4
 245              		.cfi_offset 14, -4
 246 0002 95B0     		sub	sp, sp, #84
 247              	.LCFI6:
 248              		.cfi_def_cfa_offset 88
 249              	.LVL18:
 250              	.L17:
 251              	.LBB7:
 368:Core/Src/main.c ****     osSignalWait(0x01, osWaitForever);
 252              		.loc 1 368 0 discriminator 1
 253 0004 42F21070 		movw	r0, #10000
 254 0008 FFF7FEFF 		bl	osDelay
 255              	.LVL19:
 369:Core/Src/main.c ****     sprintf(buffer, "receage 0x01");
 256              		.loc 1 369 0 discriminator 1
 257 000c 4FF0FF32 		mov	r2, #-1
 258 0010 0121     		movs	r1, #1
 259 0012 6846     		mov	r0, sp
 260 0014 FFF7FEFF 		bl	osSignalWait
 261              	.LVL20:
 370:Core/Src/main.c ****     HAL_UART_Transmit(&huart1,(uint8_t*)buffer, strlen(buffer), 1000); // ÂèëÈÄÅÂ≠óÁ¨¶‰∏≤Âπ∂ËÆæÁΩÆË
 262              		.loc 1 370 0 discriminator 1
 263 0018 074B     		ldr	r3, .L19
 264 001a 04AC     		add	r4, sp, #16
 265 001c 0FCB     		ldm	r3, {r0, r1, r2, r3}
 266 001e 07C4     		stmia	r4!, {r0, r1, r2}
 267 0020 2370     		strb	r3, [r4]
 371:Core/Src/main.c ****       
 268              		.loc 1 371 0 discriminator 1
 269 0022 04A8     		add	r0, sp, #16
 270 0024 FFF7FEFF 		bl	strlen
 271              	.LVL21:
 272 0028 4FF47A73 		mov	r3, #1000
 273 002c 82B2     		uxth	r2, r0
ARM GAS  C:\Users\82057\AppData\Local\Temp\ccMjLktW.s 			page 13


 274 002e 04A9     		add	r1, sp, #16
 275 0030 0248     		ldr	r0, .L19+4
 276 0032 FFF7FEFF 		bl	HAL_UART_Transmit
 277              	.LVL22:
 278 0036 E5E7     		b	.L17
 279              	.L20:
 280              		.align	2
 281              	.L19:
 282 0038 00000000 		.word	.LC9
 283 003c 00000000 		.word	huart1
 284              	.LBE7:
 285              		.cfi_endproc
 286              	.LFE143:
 288              		.section	.text.vApplicationIdleHook,"ax",%progbits
 289              		.align	1
 290              		.global	vApplicationIdleHook
 291              		.syntax unified
 292              		.thumb
 293              		.thumb_func
 294              		.fpu fpv4-sp-d16
 296              	vApplicationIdleHook:
 297              	.LFB138:
 186:Core/Src/main.c **** 
 298              		.loc 1 186 0
 299              		.cfi_startproc
 300              		@ args = 0, pretend = 0, frame = 0
 301              		@ frame_needed = 0, uses_anonymous_args = 0
 302 0000 10B5     		push	{r4, lr}
 303              	.LCFI7:
 304              		.cfi_def_cfa_offset 8
 305              		.cfi_offset 4, -8
 306              		.cfi_offset 14, -4
 188:Core/Src/main.c ****   system_stats_.min_stack_space_thread0 =  uxTaskGetStackHighWaterMark(defaultTaskHandle) * sizeof(
 307              		.loc 1 188 0
 308 0002 FFF7FEFF 		bl	xPortGetMinimumEverFreeHeapSize
 309              	.LVL23:
 310 0006 0A4C     		ldr	r4, .L23
 311 0008 6060     		str	r0, [r4, #4]
 189:Core/Src/main.c ****   system_stats_.min_stack_space_thread1 =  uxTaskGetStackHighWaterMark(myTask02Handle) * sizeof(Sta
 312              		.loc 1 189 0
 313 000a 0A4B     		ldr	r3, .L23+4
 314 000c 1868     		ldr	r0, [r3]
 315 000e FFF7FEFF 		bl	uxTaskGetStackHighWaterMark
 316              	.LVL24:
 317 0012 8000     		lsls	r0, r0, #2
 318 0014 A060     		str	r0, [r4, #8]
 190:Core/Src/main.c ****   system_stats_.min_stack_space_thread2 =  uxTaskGetStackHighWaterMark(myTask03Handle) * sizeof(Sta
 319              		.loc 1 190 0
 320 0016 084B     		ldr	r3, .L23+8
 321 0018 1868     		ldr	r0, [r3]
 322 001a FFF7FEFF 		bl	uxTaskGetStackHighWaterMark
 323              	.LVL25:
 324 001e 8000     		lsls	r0, r0, #2
 325 0020 E060     		str	r0, [r4, #12]
 191:Core/Src/main.c **** 
 326              		.loc 1 191 0
 327 0022 064B     		ldr	r3, .L23+12
ARM GAS  C:\Users\82057\AppData\Local\Temp\ccMjLktW.s 			page 14


 328 0024 1868     		ldr	r0, [r3]
 329 0026 FFF7FEFF 		bl	uxTaskGetStackHighWaterMark
 330              	.LVL26:
 331 002a 8000     		lsls	r0, r0, #2
 332 002c 2061     		str	r0, [r4, #16]
 195:Core/Src/main.c **** 
 333              		.loc 1 195 0
 334 002e 10BD     		pop	{r4, pc}
 335              	.L24:
 336              		.align	2
 337              	.L23:
 338 0030 00000000 		.word	system_stats_
 339 0034 00000000 		.word	defaultTaskHandle
 340 0038 00000000 		.word	myTask02Handle
 341 003c 00000000 		.word	myTask03Handle
 342              		.cfi_endproc
 343              	.LFE138:
 345              		.section	.text.Error_Handler,"ax",%progbits
 346              		.align	1
 347              		.global	Error_Handler
 348              		.syntax unified
 349              		.thumb
 350              		.thumb_func
 351              		.fpu fpv4-sp-d16
 353              	Error_Handler:
 354              	.LFB146:
 403:Core/Src/main.c **** 
 404:Core/Src/main.c **** /**
 405:Core/Src/main.c ****   * @brief  This function is executed in case of error occurrence.
 406:Core/Src/main.c ****   * @retval None
 407:Core/Src/main.c ****   */
 408:Core/Src/main.c **** void Error_Handler(void)
 409:Core/Src/main.c **** {
 355              		.loc 1 409 0
 356              		.cfi_startproc
 357              		@ Volatile: function does not return.
 358              		@ args = 0, pretend = 0, frame = 0
 359              		@ frame_needed = 0, uses_anonymous_args = 0
 360              		@ link register save eliminated.
 361              	.LBB8:
 362              	.LBB9:
 363              		.file 2 "Drivers/CMSIS/Include/cmsis_gcc.h"
   1:Drivers/CMSIS/Include/cmsis_gcc.h **** /**************************************************************************//**
   2:Drivers/CMSIS/Include/cmsis_gcc.h ****  * @file     cmsis_gcc.h
   3:Drivers/CMSIS/Include/cmsis_gcc.h ****  * @brief    CMSIS compiler GCC header file
   4:Drivers/CMSIS/Include/cmsis_gcc.h ****  * @version  V5.2.0
   5:Drivers/CMSIS/Include/cmsis_gcc.h ****  * @date     08. May 2019
   6:Drivers/CMSIS/Include/cmsis_gcc.h ****  ******************************************************************************/
   7:Drivers/CMSIS/Include/cmsis_gcc.h **** /*
   8:Drivers/CMSIS/Include/cmsis_gcc.h ****  * Copyright (c) 2009-2019 Arm Limited. All rights reserved.
   9:Drivers/CMSIS/Include/cmsis_gcc.h ****  *
  10:Drivers/CMSIS/Include/cmsis_gcc.h ****  * SPDX-License-Identifier: Apache-2.0
  11:Drivers/CMSIS/Include/cmsis_gcc.h ****  *
  12:Drivers/CMSIS/Include/cmsis_gcc.h ****  * Licensed under the Apache License, Version 2.0 (the License); you may
  13:Drivers/CMSIS/Include/cmsis_gcc.h ****  * not use this file except in compliance with the License.
  14:Drivers/CMSIS/Include/cmsis_gcc.h ****  * You may obtain a copy of the License at
  15:Drivers/CMSIS/Include/cmsis_gcc.h ****  *
ARM GAS  C:\Users\82057\AppData\Local\Temp\ccMjLktW.s 			page 15


  16:Drivers/CMSIS/Include/cmsis_gcc.h ****  * www.apache.org/licenses/LICENSE-2.0
  17:Drivers/CMSIS/Include/cmsis_gcc.h ****  *
  18:Drivers/CMSIS/Include/cmsis_gcc.h ****  * Unless required by applicable law or agreed to in writing, software
  19:Drivers/CMSIS/Include/cmsis_gcc.h ****  * distributed under the License is distributed on an AS IS BASIS, WITHOUT
  20:Drivers/CMSIS/Include/cmsis_gcc.h ****  * WARRANTIES OR CONDITIONS OF ANY KIND, either express or implied.
  21:Drivers/CMSIS/Include/cmsis_gcc.h ****  * See the License for the specific language governing permissions and
  22:Drivers/CMSIS/Include/cmsis_gcc.h ****  * limitations under the License.
  23:Drivers/CMSIS/Include/cmsis_gcc.h ****  */
  24:Drivers/CMSIS/Include/cmsis_gcc.h **** 
  25:Drivers/CMSIS/Include/cmsis_gcc.h **** #ifndef __CMSIS_GCC_H
  26:Drivers/CMSIS/Include/cmsis_gcc.h **** #define __CMSIS_GCC_H
  27:Drivers/CMSIS/Include/cmsis_gcc.h **** 
  28:Drivers/CMSIS/Include/cmsis_gcc.h **** /* ignore some GCC warnings */
  29:Drivers/CMSIS/Include/cmsis_gcc.h **** #pragma GCC diagnostic push
  30:Drivers/CMSIS/Include/cmsis_gcc.h **** #pragma GCC diagnostic ignored "-Wsign-conversion"
  31:Drivers/CMSIS/Include/cmsis_gcc.h **** #pragma GCC diagnostic ignored "-Wconversion"
  32:Drivers/CMSIS/Include/cmsis_gcc.h **** #pragma GCC diagnostic ignored "-Wunused-parameter"
  33:Drivers/CMSIS/Include/cmsis_gcc.h **** 
  34:Drivers/CMSIS/Include/cmsis_gcc.h **** /* Fallback for __has_builtin */
  35:Drivers/CMSIS/Include/cmsis_gcc.h **** #ifndef __has_builtin
  36:Drivers/CMSIS/Include/cmsis_gcc.h ****   #define __has_builtin(x) (0)
  37:Drivers/CMSIS/Include/cmsis_gcc.h **** #endif
  38:Drivers/CMSIS/Include/cmsis_gcc.h **** 
  39:Drivers/CMSIS/Include/cmsis_gcc.h **** /* CMSIS compiler specific defines */
  40:Drivers/CMSIS/Include/cmsis_gcc.h **** #ifndef   __ASM
  41:Drivers/CMSIS/Include/cmsis_gcc.h ****   #define __ASM                                  __asm
  42:Drivers/CMSIS/Include/cmsis_gcc.h **** #endif
  43:Drivers/CMSIS/Include/cmsis_gcc.h **** #ifndef   __INLINE
  44:Drivers/CMSIS/Include/cmsis_gcc.h ****   #define __INLINE                               inline
  45:Drivers/CMSIS/Include/cmsis_gcc.h **** #endif
  46:Drivers/CMSIS/Include/cmsis_gcc.h **** #ifndef   __STATIC_INLINE
  47:Drivers/CMSIS/Include/cmsis_gcc.h ****   #define __STATIC_INLINE                        static inline
  48:Drivers/CMSIS/Include/cmsis_gcc.h **** #endif
  49:Drivers/CMSIS/Include/cmsis_gcc.h **** #ifndef   __STATIC_FORCEINLINE                 
  50:Drivers/CMSIS/Include/cmsis_gcc.h ****   #define __STATIC_FORCEINLINE                   __attribute__((always_inline)) static inline
  51:Drivers/CMSIS/Include/cmsis_gcc.h **** #endif                                           
  52:Drivers/CMSIS/Include/cmsis_gcc.h **** #ifndef   __NO_RETURN
  53:Drivers/CMSIS/Include/cmsis_gcc.h ****   #define __NO_RETURN                            __attribute__((__noreturn__))
  54:Drivers/CMSIS/Include/cmsis_gcc.h **** #endif
  55:Drivers/CMSIS/Include/cmsis_gcc.h **** #ifndef   __USED
  56:Drivers/CMSIS/Include/cmsis_gcc.h ****   #define __USED                                 __attribute__((used))
  57:Drivers/CMSIS/Include/cmsis_gcc.h **** #endif
  58:Drivers/CMSIS/Include/cmsis_gcc.h **** #ifndef   __WEAK
  59:Drivers/CMSIS/Include/cmsis_gcc.h ****   #define __WEAK                                 __attribute__((weak))
  60:Drivers/CMSIS/Include/cmsis_gcc.h **** #endif
  61:Drivers/CMSIS/Include/cmsis_gcc.h **** #ifndef   __PACKED
  62:Drivers/CMSIS/Include/cmsis_gcc.h ****   #define __PACKED                               __attribute__((packed, aligned(1)))
  63:Drivers/CMSIS/Include/cmsis_gcc.h **** #endif
  64:Drivers/CMSIS/Include/cmsis_gcc.h **** #ifndef   __PACKED_STRUCT
  65:Drivers/CMSIS/Include/cmsis_gcc.h ****   #define __PACKED_STRUCT                        struct __attribute__((packed, aligned(1)))
  66:Drivers/CMSIS/Include/cmsis_gcc.h **** #endif
  67:Drivers/CMSIS/Include/cmsis_gcc.h **** #ifndef   __PACKED_UNION
  68:Drivers/CMSIS/Include/cmsis_gcc.h ****   #define __PACKED_UNION                         union __attribute__((packed, aligned(1)))
  69:Drivers/CMSIS/Include/cmsis_gcc.h **** #endif
  70:Drivers/CMSIS/Include/cmsis_gcc.h **** #ifndef   __UNALIGNED_UINT32        /* deprecated */
  71:Drivers/CMSIS/Include/cmsis_gcc.h ****   #pragma GCC diagnostic push
  72:Drivers/CMSIS/Include/cmsis_gcc.h ****   #pragma GCC diagnostic ignored "-Wpacked"
ARM GAS  C:\Users\82057\AppData\Local\Temp\ccMjLktW.s 			page 16


  73:Drivers/CMSIS/Include/cmsis_gcc.h ****   #pragma GCC diagnostic ignored "-Wattributes"
  74:Drivers/CMSIS/Include/cmsis_gcc.h ****   struct __attribute__((packed)) T_UINT32 { uint32_t v; };
  75:Drivers/CMSIS/Include/cmsis_gcc.h ****   #pragma GCC diagnostic pop
  76:Drivers/CMSIS/Include/cmsis_gcc.h ****   #define __UNALIGNED_UINT32(x)                  (((struct T_UINT32 *)(x))->v)
  77:Drivers/CMSIS/Include/cmsis_gcc.h **** #endif
  78:Drivers/CMSIS/Include/cmsis_gcc.h **** #ifndef   __UNALIGNED_UINT16_WRITE
  79:Drivers/CMSIS/Include/cmsis_gcc.h ****   #pragma GCC diagnostic push
  80:Drivers/CMSIS/Include/cmsis_gcc.h ****   #pragma GCC diagnostic ignored "-Wpacked"
  81:Drivers/CMSIS/Include/cmsis_gcc.h ****   #pragma GCC diagnostic ignored "-Wattributes"
  82:Drivers/CMSIS/Include/cmsis_gcc.h ****   __PACKED_STRUCT T_UINT16_WRITE { uint16_t v; };
  83:Drivers/CMSIS/Include/cmsis_gcc.h ****   #pragma GCC diagnostic pop
  84:Drivers/CMSIS/Include/cmsis_gcc.h ****   #define __UNALIGNED_UINT16_WRITE(addr, val)    (void)((((struct T_UINT16_WRITE *)(void *)(addr))-
  85:Drivers/CMSIS/Include/cmsis_gcc.h **** #endif
  86:Drivers/CMSIS/Include/cmsis_gcc.h **** #ifndef   __UNALIGNED_UINT16_READ
  87:Drivers/CMSIS/Include/cmsis_gcc.h ****   #pragma GCC diagnostic push
  88:Drivers/CMSIS/Include/cmsis_gcc.h ****   #pragma GCC diagnostic ignored "-Wpacked"
  89:Drivers/CMSIS/Include/cmsis_gcc.h ****   #pragma GCC diagnostic ignored "-Wattributes"
  90:Drivers/CMSIS/Include/cmsis_gcc.h ****   __PACKED_STRUCT T_UINT16_READ { uint16_t v; };
  91:Drivers/CMSIS/Include/cmsis_gcc.h ****   #pragma GCC diagnostic pop
  92:Drivers/CMSIS/Include/cmsis_gcc.h ****   #define __UNALIGNED_UINT16_READ(addr)          (((const struct T_UINT16_READ *)(const void *)(add
  93:Drivers/CMSIS/Include/cmsis_gcc.h **** #endif
  94:Drivers/CMSIS/Include/cmsis_gcc.h **** #ifndef   __UNALIGNED_UINT32_WRITE
  95:Drivers/CMSIS/Include/cmsis_gcc.h ****   #pragma GCC diagnostic push
  96:Drivers/CMSIS/Include/cmsis_gcc.h ****   #pragma GCC diagnostic ignored "-Wpacked"
  97:Drivers/CMSIS/Include/cmsis_gcc.h ****   #pragma GCC diagnostic ignored "-Wattributes"
  98:Drivers/CMSIS/Include/cmsis_gcc.h ****   __PACKED_STRUCT T_UINT32_WRITE { uint32_t v; };
  99:Drivers/CMSIS/Include/cmsis_gcc.h ****   #pragma GCC diagnostic pop
 100:Drivers/CMSIS/Include/cmsis_gcc.h ****   #define __UNALIGNED_UINT32_WRITE(addr, val)    (void)((((struct T_UINT32_WRITE *)(void *)(addr))-
 101:Drivers/CMSIS/Include/cmsis_gcc.h **** #endif
 102:Drivers/CMSIS/Include/cmsis_gcc.h **** #ifndef   __UNALIGNED_UINT32_READ
 103:Drivers/CMSIS/Include/cmsis_gcc.h ****   #pragma GCC diagnostic push
 104:Drivers/CMSIS/Include/cmsis_gcc.h ****   #pragma GCC diagnostic ignored "-Wpacked"
 105:Drivers/CMSIS/Include/cmsis_gcc.h ****   #pragma GCC diagnostic ignored "-Wattributes"
 106:Drivers/CMSIS/Include/cmsis_gcc.h ****   __PACKED_STRUCT T_UINT32_READ { uint32_t v; };
 107:Drivers/CMSIS/Include/cmsis_gcc.h ****   #pragma GCC diagnostic pop
 108:Drivers/CMSIS/Include/cmsis_gcc.h ****   #define __UNALIGNED_UINT32_READ(addr)          (((const struct T_UINT32_READ *)(const void *)(add
 109:Drivers/CMSIS/Include/cmsis_gcc.h **** #endif
 110:Drivers/CMSIS/Include/cmsis_gcc.h **** #ifndef   __ALIGNED
 111:Drivers/CMSIS/Include/cmsis_gcc.h ****   #define __ALIGNED(x)                           __attribute__((aligned(x)))
 112:Drivers/CMSIS/Include/cmsis_gcc.h **** #endif
 113:Drivers/CMSIS/Include/cmsis_gcc.h **** #ifndef   __RESTRICT
 114:Drivers/CMSIS/Include/cmsis_gcc.h ****   #define __RESTRICT                             __restrict
 115:Drivers/CMSIS/Include/cmsis_gcc.h **** #endif
 116:Drivers/CMSIS/Include/cmsis_gcc.h **** #ifndef   __COMPILER_BARRIER
 117:Drivers/CMSIS/Include/cmsis_gcc.h ****   #define __COMPILER_BARRIER()                   __ASM volatile("":::"memory")
 118:Drivers/CMSIS/Include/cmsis_gcc.h **** #endif
 119:Drivers/CMSIS/Include/cmsis_gcc.h **** 
 120:Drivers/CMSIS/Include/cmsis_gcc.h **** /* #########################  Startup and Lowlevel Init  ######################## */
 121:Drivers/CMSIS/Include/cmsis_gcc.h **** 
 122:Drivers/CMSIS/Include/cmsis_gcc.h **** #ifndef __PROGRAM_START
 123:Drivers/CMSIS/Include/cmsis_gcc.h **** 
 124:Drivers/CMSIS/Include/cmsis_gcc.h **** /**
 125:Drivers/CMSIS/Include/cmsis_gcc.h ****   \brief   Initializes data and bss sections
 126:Drivers/CMSIS/Include/cmsis_gcc.h ****   \details This default implementations initialized all data and additional bss
 127:Drivers/CMSIS/Include/cmsis_gcc.h ****            sections relying on .copy.table and .zero.table specified properly
 128:Drivers/CMSIS/Include/cmsis_gcc.h ****            in the used linker script.
 129:Drivers/CMSIS/Include/cmsis_gcc.h ****   
ARM GAS  C:\Users\82057\AppData\Local\Temp\ccMjLktW.s 			page 17


 130:Drivers/CMSIS/Include/cmsis_gcc.h ****  */
 131:Drivers/CMSIS/Include/cmsis_gcc.h **** __STATIC_FORCEINLINE __NO_RETURN void __cmsis_start(void)
 132:Drivers/CMSIS/Include/cmsis_gcc.h **** {
 133:Drivers/CMSIS/Include/cmsis_gcc.h ****   extern void _start(void) __NO_RETURN;
 134:Drivers/CMSIS/Include/cmsis_gcc.h ****   
 135:Drivers/CMSIS/Include/cmsis_gcc.h ****   typedef struct {
 136:Drivers/CMSIS/Include/cmsis_gcc.h ****     uint32_t const* src;
 137:Drivers/CMSIS/Include/cmsis_gcc.h ****     uint32_t* dest;
 138:Drivers/CMSIS/Include/cmsis_gcc.h ****     uint32_t  wlen;
 139:Drivers/CMSIS/Include/cmsis_gcc.h ****   } __copy_table_t;
 140:Drivers/CMSIS/Include/cmsis_gcc.h ****   
 141:Drivers/CMSIS/Include/cmsis_gcc.h ****   typedef struct {
 142:Drivers/CMSIS/Include/cmsis_gcc.h ****     uint32_t* dest;
 143:Drivers/CMSIS/Include/cmsis_gcc.h ****     uint32_t  wlen;
 144:Drivers/CMSIS/Include/cmsis_gcc.h ****   } __zero_table_t;
 145:Drivers/CMSIS/Include/cmsis_gcc.h ****   
 146:Drivers/CMSIS/Include/cmsis_gcc.h ****   extern const __copy_table_t __copy_table_start__;
 147:Drivers/CMSIS/Include/cmsis_gcc.h ****   extern const __copy_table_t __copy_table_end__;
 148:Drivers/CMSIS/Include/cmsis_gcc.h ****   extern const __zero_table_t __zero_table_start__;
 149:Drivers/CMSIS/Include/cmsis_gcc.h ****   extern const __zero_table_t __zero_table_end__;
 150:Drivers/CMSIS/Include/cmsis_gcc.h **** 
 151:Drivers/CMSIS/Include/cmsis_gcc.h ****   for (__copy_table_t const* pTable = &__copy_table_start__; pTable < &__copy_table_end__; ++pTable
 152:Drivers/CMSIS/Include/cmsis_gcc.h ****     for(uint32_t i=0u; i<pTable->wlen; ++i) {
 153:Drivers/CMSIS/Include/cmsis_gcc.h ****       pTable->dest[i] = pTable->src[i];
 154:Drivers/CMSIS/Include/cmsis_gcc.h ****     }
 155:Drivers/CMSIS/Include/cmsis_gcc.h ****   }
 156:Drivers/CMSIS/Include/cmsis_gcc.h ****  
 157:Drivers/CMSIS/Include/cmsis_gcc.h ****   for (__zero_table_t const* pTable = &__zero_table_start__; pTable < &__zero_table_end__; ++pTable
 158:Drivers/CMSIS/Include/cmsis_gcc.h ****     for(uint32_t i=0u; i<pTable->wlen; ++i) {
 159:Drivers/CMSIS/Include/cmsis_gcc.h ****       pTable->dest[i] = 0u;
 160:Drivers/CMSIS/Include/cmsis_gcc.h ****     }
 161:Drivers/CMSIS/Include/cmsis_gcc.h ****   }
 162:Drivers/CMSIS/Include/cmsis_gcc.h ****  
 163:Drivers/CMSIS/Include/cmsis_gcc.h ****   _start();
 164:Drivers/CMSIS/Include/cmsis_gcc.h **** }
 165:Drivers/CMSIS/Include/cmsis_gcc.h ****   
 166:Drivers/CMSIS/Include/cmsis_gcc.h **** #define __PROGRAM_START           __cmsis_start
 167:Drivers/CMSIS/Include/cmsis_gcc.h **** #endif
 168:Drivers/CMSIS/Include/cmsis_gcc.h **** 
 169:Drivers/CMSIS/Include/cmsis_gcc.h **** #ifndef __INITIAL_SP
 170:Drivers/CMSIS/Include/cmsis_gcc.h **** #define __INITIAL_SP              __StackTop
 171:Drivers/CMSIS/Include/cmsis_gcc.h **** #endif
 172:Drivers/CMSIS/Include/cmsis_gcc.h **** 
 173:Drivers/CMSIS/Include/cmsis_gcc.h **** #ifndef __STACK_LIMIT
 174:Drivers/CMSIS/Include/cmsis_gcc.h **** #define __STACK_LIMIT             __StackLimit
 175:Drivers/CMSIS/Include/cmsis_gcc.h **** #endif
 176:Drivers/CMSIS/Include/cmsis_gcc.h **** 
 177:Drivers/CMSIS/Include/cmsis_gcc.h **** #ifndef __VECTOR_TABLE
 178:Drivers/CMSIS/Include/cmsis_gcc.h **** #define __VECTOR_TABLE            __Vectors
 179:Drivers/CMSIS/Include/cmsis_gcc.h **** #endif
 180:Drivers/CMSIS/Include/cmsis_gcc.h **** 
 181:Drivers/CMSIS/Include/cmsis_gcc.h **** #ifndef __VECTOR_TABLE_ATTRIBUTE
 182:Drivers/CMSIS/Include/cmsis_gcc.h **** #define __VECTOR_TABLE_ATTRIBUTE  __attribute((used, section(".vectors")))
 183:Drivers/CMSIS/Include/cmsis_gcc.h **** #endif
 184:Drivers/CMSIS/Include/cmsis_gcc.h **** 
 185:Drivers/CMSIS/Include/cmsis_gcc.h **** /* ###########################  Core Function Access  ########################### */
 186:Drivers/CMSIS/Include/cmsis_gcc.h **** /** \ingroup  CMSIS_Core_FunctionInterface
ARM GAS  C:\Users\82057\AppData\Local\Temp\ccMjLktW.s 			page 18


 187:Drivers/CMSIS/Include/cmsis_gcc.h ****     \defgroup CMSIS_Core_RegAccFunctions CMSIS Core Register Access Functions
 188:Drivers/CMSIS/Include/cmsis_gcc.h ****   @{
 189:Drivers/CMSIS/Include/cmsis_gcc.h ****  */
 190:Drivers/CMSIS/Include/cmsis_gcc.h **** 
 191:Drivers/CMSIS/Include/cmsis_gcc.h **** /**
 192:Drivers/CMSIS/Include/cmsis_gcc.h ****   \brief   Enable IRQ Interrupts
 193:Drivers/CMSIS/Include/cmsis_gcc.h ****   \details Enables IRQ interrupts by clearing the I-bit in the CPSR.
 194:Drivers/CMSIS/Include/cmsis_gcc.h ****            Can only be executed in Privileged modes.
 195:Drivers/CMSIS/Include/cmsis_gcc.h ****  */
 196:Drivers/CMSIS/Include/cmsis_gcc.h **** __STATIC_FORCEINLINE void __enable_irq(void)
 197:Drivers/CMSIS/Include/cmsis_gcc.h **** {
 198:Drivers/CMSIS/Include/cmsis_gcc.h ****   __ASM volatile ("cpsie i" : : : "memory");
 199:Drivers/CMSIS/Include/cmsis_gcc.h **** }
 200:Drivers/CMSIS/Include/cmsis_gcc.h **** 
 201:Drivers/CMSIS/Include/cmsis_gcc.h **** 
 202:Drivers/CMSIS/Include/cmsis_gcc.h **** /**
 203:Drivers/CMSIS/Include/cmsis_gcc.h ****   \brief   Disable IRQ Interrupts
 204:Drivers/CMSIS/Include/cmsis_gcc.h ****   \details Disables IRQ interrupts by setting the I-bit in the CPSR.
 205:Drivers/CMSIS/Include/cmsis_gcc.h ****            Can only be executed in Privileged modes.
 206:Drivers/CMSIS/Include/cmsis_gcc.h ****  */
 207:Drivers/CMSIS/Include/cmsis_gcc.h **** __STATIC_FORCEINLINE void __disable_irq(void)
 208:Drivers/CMSIS/Include/cmsis_gcc.h **** {
 209:Drivers/CMSIS/Include/cmsis_gcc.h ****   __ASM volatile ("cpsid i" : : : "memory");
 364              		.loc 2 209 0
 365              		.syntax unified
 366              	@ 209 "Drivers/CMSIS/Include/cmsis_gcc.h" 1
 367 0000 72B6     		cpsid i
 368              	@ 0 "" 2
 369              		.thumb
 370              		.syntax unified
 371              	.L26:
 372 0002 FEE7     		b	.L26
 373              	.LBE9:
 374              	.LBE8:
 375              		.cfi_endproc
 376              	.LFE146:
 378              		.section	.text.SystemClock_Config,"ax",%progbits
 379              		.align	1
 380              		.global	SystemClock_Config
 381              		.syntax unified
 382              		.thumb
 383              		.thumb_func
 384              		.fpu fpv4-sp-d16
 386              	SystemClock_Config:
 387              	.LFB139:
 202:Core/Src/main.c ****   RCC_OscInitTypeDef RCC_OscInitStruct = {0};
 388              		.loc 1 202 0
 389              		.cfi_startproc
 390              		@ args = 0, pretend = 0, frame = 88
 391              		@ frame_needed = 0, uses_anonymous_args = 0
 392 0000 00B5     		push	{lr}
 393              	.LCFI8:
 394              		.cfi_def_cfa_offset 4
 395              		.cfi_offset 14, -4
 396 0002 97B0     		sub	sp, sp, #92
 397              	.LCFI9:
 398              		.cfi_def_cfa_offset 96
ARM GAS  C:\Users\82057\AppData\Local\Temp\ccMjLktW.s 			page 19


 203:Core/Src/main.c ****   RCC_ClkInitTypeDef RCC_ClkInitStruct = {0};
 399              		.loc 1 203 0
 400 0004 4422     		movs	r2, #68
 401 0006 0021     		movs	r1, #0
 402 0008 05A8     		add	r0, sp, #20
 403 000a FFF7FEFF 		bl	memset
 404              	.LVL27:
 204:Core/Src/main.c **** 
 405              		.loc 1 204 0
 406 000e 0023     		movs	r3, #0
 407 0010 0093     		str	r3, [sp]
 408 0012 0193     		str	r3, [sp, #4]
 409 0014 0293     		str	r3, [sp, #8]
 410 0016 0393     		str	r3, [sp, #12]
 411 0018 0493     		str	r3, [sp, #16]
 208:Core/Src/main.c ****   {
 412              		.loc 1 208 0
 413 001a 4FF40070 		mov	r0, #512
 414 001e FFF7FEFF 		bl	HAL_PWREx_ControlVoltageScaling
 415              	.LVL28:
 416 0022 18BB     		cbnz	r0, .L32
 216:Core/Src/main.c ****   RCC_OscInitStruct.HSEState = RCC_HSE_ON;
 417              		.loc 1 216 0
 418 0024 0122     		movs	r2, #1
 419 0026 0592     		str	r2, [sp, #20]
 217:Core/Src/main.c ****   RCC_OscInitStruct.PLL.PLLState = RCC_PLL_ON;
 420              		.loc 1 217 0
 421 0028 4FF48033 		mov	r3, #65536
 422 002c 0693     		str	r3, [sp, #24]
 218:Core/Src/main.c ****   RCC_OscInitStruct.PLL.PLLSource = RCC_PLLSOURCE_HSE;
 423              		.loc 1 218 0
 424 002e 0223     		movs	r3, #2
 425 0030 0F93     		str	r3, [sp, #60]
 219:Core/Src/main.c ****   RCC_OscInitStruct.PLL.PLLM = 1;
 426              		.loc 1 219 0
 427 0032 0321     		movs	r1, #3
 428 0034 1091     		str	r1, [sp, #64]
 220:Core/Src/main.c ****   RCC_OscInitStruct.PLL.PLLN = 20;
 429              		.loc 1 220 0
 430 0036 1192     		str	r2, [sp, #68]
 221:Core/Src/main.c ****   RCC_OscInitStruct.PLL.PLLP = RCC_PLLP_DIV7;
 431              		.loc 1 221 0
 432 0038 1422     		movs	r2, #20
 433 003a 1292     		str	r2, [sp, #72]
 222:Core/Src/main.c ****   RCC_OscInitStruct.PLL.PLLQ = RCC_PLLQ_DIV2;
 434              		.loc 1 222 0
 435 003c 0722     		movs	r2, #7
 436 003e 1392     		str	r2, [sp, #76]
 223:Core/Src/main.c ****   RCC_OscInitStruct.PLL.PLLR = RCC_PLLR_DIV2;
 437              		.loc 1 223 0
 438 0040 1493     		str	r3, [sp, #80]
 224:Core/Src/main.c ****   if (HAL_RCC_OscConfig(&RCC_OscInitStruct) != HAL_OK)
 439              		.loc 1 224 0
 440 0042 1593     		str	r3, [sp, #84]
 225:Core/Src/main.c ****   {
 441              		.loc 1 225 0
 442 0044 05A8     		add	r0, sp, #20
ARM GAS  C:\Users\82057\AppData\Local\Temp\ccMjLktW.s 			page 20


 443 0046 FFF7FEFF 		bl	HAL_RCC_OscConfig
 444              	.LVL29:
 445 004a 88B9     		cbnz	r0, .L33
 232:Core/Src/main.c ****                               |RCC_CLOCKTYPE_PCLK1|RCC_CLOCKTYPE_PCLK2;
 446              		.loc 1 232 0
 447 004c 0F23     		movs	r3, #15
 448 004e 0093     		str	r3, [sp]
 234:Core/Src/main.c ****   RCC_ClkInitStruct.AHBCLKDivider = RCC_SYSCLK_DIV1;
 449              		.loc 1 234 0
 450 0050 0323     		movs	r3, #3
 451 0052 0193     		str	r3, [sp, #4]
 235:Core/Src/main.c ****   RCC_ClkInitStruct.APB1CLKDivider = RCC_HCLK_DIV1;
 452              		.loc 1 235 0
 453 0054 0023     		movs	r3, #0
 454 0056 0293     		str	r3, [sp, #8]
 236:Core/Src/main.c ****   RCC_ClkInitStruct.APB2CLKDivider = RCC_HCLK_DIV1;
 455              		.loc 1 236 0
 456 0058 0393     		str	r3, [sp, #12]
 237:Core/Src/main.c **** 
 457              		.loc 1 237 0
 458 005a 0493     		str	r3, [sp, #16]
 239:Core/Src/main.c ****   {
 459              		.loc 1 239 0
 460 005c 0421     		movs	r1, #4
 461 005e 6846     		mov	r0, sp
 462 0060 FFF7FEFF 		bl	HAL_RCC_ClockConfig
 463              	.LVL30:
 464 0064 30B9     		cbnz	r0, .L34
 243:Core/Src/main.c **** 
 465              		.loc 1 243 0
 466 0066 17B0     		add	sp, sp, #92
 467              	.LCFI10:
 468              		.cfi_remember_state
 469              		.cfi_def_cfa_offset 4
 470              		@ sp needed
 471 0068 5DF804FB 		ldr	pc, [sp], #4
 472              	.L32:
 473              	.LCFI11:
 474              		.cfi_restore_state
 210:Core/Src/main.c ****   }
 475              		.loc 1 210 0
 476 006c FFF7FEFF 		bl	Error_Handler
 477              	.LVL31:
 478              	.L33:
 227:Core/Src/main.c ****   }
 479              		.loc 1 227 0
 480 0070 FFF7FEFF 		bl	Error_Handler
 481              	.LVL32:
 482              	.L34:
 241:Core/Src/main.c ****   }
 483              		.loc 1 241 0
 484 0074 FFF7FEFF 		bl	Error_Handler
 485              	.LVL33:
 486              		.cfi_endproc
 487              	.LFE139:
 489              		.section	.text.MX_TIM16_Init,"ax",%progbits
 490              		.align	1
ARM GAS  C:\Users\82057\AppData\Local\Temp\ccMjLktW.s 			page 21


 491              		.global	MX_TIM16_Init
 492              		.syntax unified
 493              		.thumb
 494              		.thumb_func
 495              		.fpu fpv4-sp-d16
 497              	MX_TIM16_Init:
 498              	.LFB140:
 251:Core/Src/main.c **** 
 499              		.loc 1 251 0
 500              		.cfi_startproc
 501              		@ args = 0, pretend = 0, frame = 0
 502              		@ frame_needed = 0, uses_anonymous_args = 0
 503 0000 08B5     		push	{r3, lr}
 504              	.LCFI12:
 505              		.cfi_def_cfa_offset 8
 506              		.cfi_offset 3, -8
 507              		.cfi_offset 14, -4
 260:Core/Src/main.c ****   htim16.Init.Prescaler = 79;
 508              		.loc 1 260 0
 509 0002 0A48     		ldr	r0, .L39
 510 0004 0A4B     		ldr	r3, .L39+4
 511 0006 0360     		str	r3, [r0]
 261:Core/Src/main.c ****   htim16.Init.CounterMode = TIM_COUNTERMODE_UP;
 512              		.loc 1 261 0
 513 0008 4F23     		movs	r3, #79
 514 000a 4360     		str	r3, [r0, #4]
 262:Core/Src/main.c ****   htim16.Init.Period = 100;
 515              		.loc 1 262 0
 516 000c 0023     		movs	r3, #0
 517 000e 8360     		str	r3, [r0, #8]
 263:Core/Src/main.c ****   htim16.Init.ClockDivision = TIM_CLOCKDIVISION_DIV1;
 518              		.loc 1 263 0
 519 0010 6422     		movs	r2, #100
 520 0012 C260     		str	r2, [r0, #12]
 264:Core/Src/main.c ****   htim16.Init.RepetitionCounter = 0;
 521              		.loc 1 264 0
 522 0014 0361     		str	r3, [r0, #16]
 265:Core/Src/main.c ****   htim16.Init.AutoReloadPreload = TIM_AUTORELOAD_PRELOAD_DISABLE;
 523              		.loc 1 265 0
 524 0016 4361     		str	r3, [r0, #20]
 266:Core/Src/main.c ****   if (HAL_TIM_Base_Init(&htim16) != HAL_OK)
 525              		.loc 1 266 0
 526 0018 8361     		str	r3, [r0, #24]
 267:Core/Src/main.c ****   {
 527              		.loc 1 267 0
 528 001a FFF7FEFF 		bl	HAL_TIM_Base_Init
 529              	.LVL34:
 530 001e 18B9     		cbnz	r0, .L38
 271:Core/Src/main.c ****   /* USER CODE BEGIN TIM16_Init 2 */
 531              		.loc 1 271 0
 532 0020 0248     		ldr	r0, .L39
 533 0022 FFF7FEFF 		bl	HAL_TIM_Base_Start_IT
 534              	.LVL35:
 276:Core/Src/main.c **** 
 535              		.loc 1 276 0
 536 0026 08BD     		pop	{r3, pc}
 537              	.L38:
ARM GAS  C:\Users\82057\AppData\Local\Temp\ccMjLktW.s 			page 22


 269:Core/Src/main.c ****   }
 538              		.loc 1 269 0
 539 0028 FFF7FEFF 		bl	Error_Handler
 540              	.LVL36:
 541              	.L40:
 542              		.align	2
 543              	.L39:
 544 002c 00000000 		.word	htim16
 545 0030 00440140 		.word	1073824768
 546              		.cfi_endproc
 547              	.LFE140:
 549              		.section	.text.main,"ax",%progbits
 550              		.align	1
 551              		.global	main
 552              		.syntax unified
 553              		.thumb
 554              		.thumb_func
 555              		.fpu fpv4-sp-d16
 557              	main:
 558              	.LFB137:
  81:Core/Src/main.c **** 
 559              		.loc 1 81 0
 560              		.cfi_startproc
 561              		@ Volatile: function does not return.
 562              		@ args = 0, pretend = 0, frame = 128
 563              		@ frame_needed = 0, uses_anonymous_args = 0
 564 0000 80B5     		push	{r7, lr}
 565              	.LCFI13:
 566              		.cfi_def_cfa_offset 8
 567              		.cfi_offset 7, -8
 568              		.cfi_offset 14, -4
 569 0002 A0B0     		sub	sp, sp, #128
 570              	.LCFI14:
 571              		.cfi_def_cfa_offset 136
  90:Core/Src/main.c **** 
 572              		.loc 1 90 0
 573 0004 FFF7FEFF 		bl	HAL_Init
 574              	.LVL37:
  97:Core/Src/main.c **** 
 575              		.loc 1 97 0
 576 0008 FFF7FEFF 		bl	SystemClock_Config
 577              	.LVL38:
 104:Core/Src/main.c ****   MX_USART1_UART_Init();
 578              		.loc 1 104 0
 579 000c FFF7FEFF 		bl	MX_GPIO_Init
 580              	.LVL39:
 105:Core/Src/main.c ****   /* USER CODE BEGIN 2 */
 581              		.loc 1 105 0
 582 0010 FFF7FEFF 		bl	MX_USART1_UART_Init
 583              	.LVL40:
 107:Core/Src/main.c ****   /* USER CODE END 2 */
 584              		.loc 1 107 0
 585 0014 FFF7FEFF 		bl	MX_TIM16_Init
 586              	.LVL41:
 112:Core/Src/main.c ****   myMutex01Handle = osMutexCreate(osMutex(myMutex01));
 587              		.loc 1 112 0
 588 0018 0025     		movs	r5, #0
ARM GAS  C:\Users\82057\AppData\Local\Temp\ccMjLktW.s 			page 23


 589 001a 1E95     		str	r5, [sp, #120]
 590 001c 1F95     		str	r5, [sp, #124]
 113:Core/Src/main.c **** 
 591              		.loc 1 113 0
 592 001e 1EA8     		add	r0, sp, #120
 593 0020 FFF7FEFF 		bl	osMutexCreate
 594              	.LVL42:
 595 0024 274B     		ldr	r3, .L44
 596 0026 1860     		str	r0, [r3]
 121:Core/Src/main.c ****   myBinarySem01Handle = osSemaphoreCreate(osSemaphore(myBinarySem01), 1);
 597              		.loc 1 121 0
 598 0028 1C95     		str	r5, [sp, #112]
 599 002a 1D95     		str	r5, [sp, #116]
 122:Core/Src/main.c **** 
 600              		.loc 1 122 0
 601 002c 0121     		movs	r1, #1
 602 002e 1CA8     		add	r0, sp, #112
 603 0030 FFF7FEFF 		bl	osSemaphoreCreate
 604              	.LVL43:
 605 0034 244B     		ldr	r3, .L44+4
 606 0036 1860     		str	r0, [r3]
 130:Core/Src/main.c ****   myTimer01Handle = osTimerCreate(osTimer(myTimer01), osTimerPeriodic, NULL);
 607              		.loc 1 130 0
 608 0038 244B     		ldr	r3, .L44+8
 609 003a 1A93     		str	r3, [sp, #104]
 610 003c 1B95     		str	r5, [sp, #108]
 131:Core/Src/main.c ****   if( myTimer01Handle != NULL )
 611              		.loc 1 131 0
 612 003e 2A46     		mov	r2, r5
 613 0040 0121     		movs	r1, #1
 614 0042 1AA8     		add	r0, sp, #104
 615 0044 FFF7FEFF 		bl	osTimerCreate
 616              	.LVL44:
 617 0048 214B     		ldr	r3, .L44+12
 618 004a 1860     		str	r0, [r3]
 143:Core/Src/main.c ****   myQueue01Handle = osMessageCreate(osMessageQ(myQueue01), NULL);
 619              		.loc 1 143 0
 620 004c 214C     		ldr	r4, .L44+16
 621 004e 16AE     		add	r6, sp, #88
 622 0050 94E80F00 		ldm	r4, {r0, r1, r2, r3}
 623 0054 86E80F00 		stm	r6, {r0, r1, r2, r3}
 144:Core/Src/main.c **** 
 624              		.loc 1 144 0
 625 0058 2946     		mov	r1, r5
 626 005a 3046     		mov	r0, r6
 627 005c FFF7FEFF 		bl	osMessageCreate
 628              	.LVL45:
 629 0060 1D4B     		ldr	r3, .L44+20
 630 0062 1860     		str	r0, [r3]
 152:Core/Src/main.c ****   defaultTaskHandle = osThreadCreate(osThread(defaultTask), NULL);
 631              		.loc 1 152 0
 632 0064 0FAE     		add	r6, sp, #60
 633 0066 04F11007 		add	r7, r4, #16
 634 006a 0FCF     		ldmia	r7!, {r0, r1, r2, r3}
 635 006c 0FC6     		stmia	r6!, {r0, r1, r2, r3}
 636 006e 97E80700 		ldm	r7, {r0, r1, r2}
 637 0072 86E80700 		stm	r6, {r0, r1, r2}
ARM GAS  C:\Users\82057\AppData\Local\Temp\ccMjLktW.s 			page 24


 153:Core/Src/main.c **** 
 638              		.loc 1 153 0
 639 0076 2946     		mov	r1, r5
 640 0078 0FA8     		add	r0, sp, #60
 641 007a FFF7FEFF 		bl	osThreadCreate
 642              	.LVL46:
 643 007e 174B     		ldr	r3, .L44+24
 644 0080 1860     		str	r0, [r3]
 156:Core/Src/main.c ****   myTask02Handle = osThreadCreate(osThread(myTask02), NULL);
 645              		.loc 1 156 0
 646 0082 08AE     		add	r6, sp, #32
 647 0084 04F12C07 		add	r7, r4, #44
 648 0088 0FCF     		ldmia	r7!, {r0, r1, r2, r3}
 649 008a 0FC6     		stmia	r6!, {r0, r1, r2, r3}
 650 008c 97E80700 		ldm	r7, {r0, r1, r2}
 651 0090 86E80700 		stm	r6, {r0, r1, r2}
 157:Core/Src/main.c **** 
 652              		.loc 1 157 0
 653 0094 2946     		mov	r1, r5
 654 0096 08A8     		add	r0, sp, #32
 655 0098 FFF7FEFF 		bl	osThreadCreate
 656              	.LVL47:
 657 009c 104B     		ldr	r3, .L44+28
 658 009e 1860     		str	r0, [r3]
 160:Core/Src/main.c ****   myTask03Handle = osThreadCreate(osThread(myTask03), NULL);
 659              		.loc 1 160 0
 660 00a0 01AE     		add	r6, sp, #4
 661 00a2 4834     		adds	r4, r4, #72
 662 00a4 0FCC     		ldmia	r4!, {r0, r1, r2, r3}
 663 00a6 0FC6     		stmia	r6!, {r0, r1, r2, r3}
 664 00a8 94E80700 		ldm	r4, {r0, r1, r2}
 665 00ac 86E80700 		stm	r6, {r0, r1, r2}
 161:Core/Src/main.c **** 
 666              		.loc 1 161 0
 667 00b0 2946     		mov	r1, r5
 668 00b2 01A8     		add	r0, sp, #4
 669 00b4 FFF7FEFF 		bl	osThreadCreate
 670              	.LVL48:
 671 00b8 0A4B     		ldr	r3, .L44+32
 672 00ba 1860     		str	r0, [r3]
 168:Core/Src/main.c **** 
 673              		.loc 1 168 0
 674 00bc FFF7FEFF 		bl	osKernelStart
 675              	.LVL49:
 676              	.L42:
 677 00c0 FEE7     		b	.L42
 678              	.L45:
 679 00c2 00BF     		.align	2
 680              	.L44:
 681 00c4 00000000 		.word	myMutex01Handle
 682 00c8 00000000 		.word	myBinarySem01Handle
 683 00cc 00000000 		.word	Callback01
 684 00d0 00000000 		.word	myTimer01Handle
 685 00d4 00000000 		.word	.LANCHOR0
 686 00d8 00000000 		.word	myQueue01Handle
 687 00dc 00000000 		.word	defaultTaskHandle
 688 00e0 00000000 		.word	myTask02Handle
ARM GAS  C:\Users\82057\AppData\Local\Temp\ccMjLktW.s 			page 25


 689 00e4 00000000 		.word	myTask03Handle
 690              		.cfi_endproc
 691              	.LFE137:
 693              		.comm	TaskStatusArray_,432,4
 694              		.comm	myBinarySem01Handle,4,4
 695              		.comm	myMutex01Handle,4,4
 696              		.comm	myTimer01Handle,4,4
 697              		.comm	myQueue01Handle,4,4
 698              		.comm	myTask03Handle,4,4
 699              		.comm	myTask02Handle,4,4
 700              		.comm	defaultTaskHandle,4,4
 701              		.comm	system_stats_,40,4
 702              		.comm	htim16,76,4
 703              		.section	.rodata
 704              		.align	2
 705              		.set	.LANCHOR0,. + 0
 706              	.LC0:
 707 0000 10000000 		.word	16
 708 0004 02000000 		.word	2
 709 0008 00000000 		.word	0
 710 000c 00000000 		.word	0
 711              	.LC10:
 712 0010 18000000 		.word	.LC1
 713 0014 00000000 		.word	StartDefaultTask
 714 0018 0000     		.short	0
 715 001a 0000     		.space	2
 716 001c 00000000 		.word	0
 717 0020 00020000 		.word	512
 718 0024 00000000 		.word	0
 719 0028 00000000 		.word	0
 720              	.LC11:
 721 002c 0C000000 		.word	.LC3
 722 0030 00000000 		.word	StartTask02
 723 0034 FDFF     		.short	-3
 724 0036 0000     		.space	2
 725 0038 00000000 		.word	0
 726 003c 00010000 		.word	256
 727 0040 00000000 		.word	0
 728 0044 00000000 		.word	0
 729              	.LC12:
 730 0048 00000000 		.word	.LC5
 731 004c 00000000 		.word	StartTask03
 732 0050 FDFF     		.short	-3
 733 0052 0000     		.space	2
 734 0054 00000000 		.word	0
 735 0058 80000000 		.word	128
 736 005c 00000000 		.word	0
 737 0060 00000000 		.word	0
 738              		.section	.rodata.StartDefaultTask.str1.4,"aMS",%progbits,1
 739              		.align	2
 740              	.LC7:
 741 0000 73657420 		.ascii	"set task02 message\000"
 741      7461736B 
 741      3032206D 
 741      65737361 
 741      676500
 742 0013 00       		.space	1
ARM GAS  C:\Users\82057\AppData\Local\Temp\ccMjLktW.s 			page 26


 743              	.LC8:
 744 0014 74687265 		.ascii	"thread name is %s. time_used is %d\012\000"
 744      6164206E 
 744      616D6520 
 744      69732025 
 744      732E2074 
 745              		.section	.rodata.StartTask02.str1.4,"aMS",%progbits,1
 746              		.align	2
 747              	.LC9:
 748 0000 72656365 		.ascii	"receage 0x01\000"
 748      61676520 
 748      30783031 
 748      00
 749              		.section	.rodata.str1.4,"aMS",%progbits,1
 750              		.align	2
 751              	.LC5:
 752 0000 6D795461 		.ascii	"myTask03\000"
 752      736B3033 
 752      00
 753 0009 000000   		.space	3
 754              	.LC3:
 755 000c 6D795461 		.ascii	"myTask02\000"
 755      736B3032 
 755      00
 756 0015 000000   		.space	3
 757              	.LC1:
 758 0018 64656661 		.ascii	"defaultTask\000"
 758      756C7454 
 758      61736B00 
 759              		.text
 760              	.Letext0:
 761              		.file 3 "c:\\program files (x86)\\gnu tools arm embedded\\7 2018-q2-update\\arm-none-eabi\\include
 762              		.file 4 "c:\\program files (x86)\\gnu tools arm embedded\\7 2018-q2-update\\arm-none-eabi\\include
 763              		.file 5 "Drivers/CMSIS/Include/core_cm4.h"
 764              		.file 6 "Drivers/CMSIS/Device/ST/STM32L4xx/Include/system_stm32l4xx.h"
 765              		.file 7 "Drivers/CMSIS/Device/ST/STM32L4xx/Include/stm32l431xx.h"
 766              		.file 8 "Drivers/STM32L4xx_HAL_Driver/Inc/stm32l4xx_hal_def.h"
 767              		.file 9 "Drivers/STM32L4xx_HAL_Driver/Inc/stm32l4xx_hal_rcc.h"
 768              		.file 10 "Drivers/STM32L4xx_HAL_Driver/Inc/stm32l4xx_hal_dma.h"
 769              		.file 11 "Drivers/STM32L4xx_HAL_Driver/Inc/stm32l4xx_hal_flash.h"
 770              		.file 12 "Drivers/STM32L4xx_HAL_Driver/Inc/stm32l4xx_hal_tim.h"
 771              		.file 13 "Drivers/STM32L4xx_HAL_Driver/Inc/stm32l4xx_hal_uart.h"
 772              		.file 14 "Drivers/STM32L4xx_HAL_Driver/Inc/stm32l4xx_hal.h"
 773              		.file 15 "Core/Inc/main.h"
 774              		.file 16 "Middlewares/Third_Party/FreeRTOS/Source/include/projdefs.h"
 775              		.file 17 "Middlewares/Third_Party/FreeRTOS/Source/portable/GCC/ARM_CM4F/portmacro.h"
 776              		.file 18 "Middlewares/Third_Party/FreeRTOS/Source/include/FreeRTOS.h"
 777              		.file 19 "Middlewares/Third_Party/FreeRTOS/Source/include/task.h"
 778              		.file 20 "Middlewares/Third_Party/FreeRTOS/Source/include/timers.h"
 779              		.file 21 "Middlewares/Third_Party/FreeRTOS/Source/include/queue.h"
 780              		.file 22 "Middlewares/Third_Party/FreeRTOS/Source/include/semphr.h"
 781              		.file 23 "Middlewares/Third_Party/FreeRTOS/Source/CMSIS_RTOS/cmsis_os.h"
 782              		.file 24 "BSP/Inc/usart.h"
 783              		.file 25 "<built-in>"
 784              		.file 26 "Drivers/STM32L4xx_HAL_Driver/Inc/stm32l4xx_hal_pwr_ex.h"
 785              		.file 27 "Middlewares/Third_Party/FreeRTOS/Source/include/portable.h"
ARM GAS  C:\Users\82057\AppData\Local\Temp\ccMjLktW.s 			page 27

